target datalayout = "e-m:e-p270:32:32-p271:32:32-p272:64:64-i64:64-i128:128-f80:128-n8:16:32:64-S128"
target triple = "x86_64-pc-linux-gnu"

%struct.Type = type { i32, i32, i32, i8, i8, ptr, ptr, ptr, ptr, i32, ptr, ptr, ptr, i8, i8, ptr, ptr, i8, ptr }

@.str.70 = private unnamed_addr constant [5 x i8] c"%rdi\00", align 1
@depth = internal global i32 0, align 4
@.str.220 = private unnamed_addr constant [23 x i8] c"  mov %d(%%rax), %%r8b\00", align 1
@.str.221 = private unnamed_addr constant [23 x i8] c"  mov %%r8b, %d(%%rdi)\00", align 1
@.str.222 = private unnamed_addr constant [24 x i8] c"  movss %%xmm0, (%%rdi)\00", align 1
@.str.223 = private unnamed_addr constant [24 x i8] c"  movsd %%xmm0, (%%rdi)\00", align 1
@.str.224 = private unnamed_addr constant [16 x i8] c"  fstpt (%%rdi)\00", align 1
@.str.225 = private unnamed_addr constant [20 x i8] c"  mov %%al, (%%rdi)\00", align 1
@.str.226 = private unnamed_addr constant [20 x i8] c"  mov %%ax, (%%rdi)\00", align 1
@.str.227 = private unnamed_addr constant [21 x i8] c"  mov %%eax, (%%rdi)\00", align 1
@.str.228 = private unnamed_addr constant [21 x i8] c"  mov %%rax, (%%rdi)\00", align 1
@.str.252 = private unnamed_addr constant [9 x i8] c"  pop %s\00", align 1

; Function Attrs: nounwind uwtable
define internal void @pop(ptr noundef %0) #0 {
  %2 = alloca ptr, align 8
  store ptr %0, ptr %2, align 8, !tbaa !23
  %3 = load ptr, ptr %2, align 8, !tbaa !23
  call void (ptr, ...) @println(ptr noundef @.str.252, ptr noundef %3)
  %4 = load i32, ptr @depth, align 4, !tbaa !7
  %5 = add nsw i32 %4, -1
  store i32 %5, ptr @depth, align 4, !tbaa !7
  ret void
}

; Function Attrs: nounwind uwtable
define internal void @store(ptr noundef %0) #0 {
  %2 = alloca ptr, align 8
  %3 = alloca i32, align 4
  store ptr %0, ptr %2, align 8, !tbaa !37
  call void @pop(ptr noundef @.str.70)
  %4 = load ptr, ptr %2, align 8, !tbaa !37
  %5 = getelementptr inbounds nuw %struct.Type, ptr %4, i32 0, i32 0
  %6 = load i32, ptr %5, align 8, !tbaa !38
  switch i32 %6, label %25 [
    i32 14, label %7
    i32 15, label %7
    i32 6, label %22
    i32 7, label %23
    i32 8, label %24
  ]

7:                                                ; preds = %1, %1
  call void @llvm.lifetime.start.p0(i64 4, ptr %3) #8
  store i32 0, ptr %3, align 4, !tbaa !7
  br label %8

8:                                                ; preds = %18, %7
  %9 = load i32, ptr %3, align 4, !tbaa !7
  %10 = load ptr, ptr %2, align 8, !tbaa !37
  %11 = getelementptr inbounds nuw %struct.Type, ptr %10, i32 0, i32 1
  %12 = load i32, ptr %11, align 4, !tbaa !41
  %13 = icmp slt i32 %9, %12
  br i1 %13, label %15, label %14

14:                                               ; preds = %8
  call void @llvm.lifetime.end.p0(i64 4, ptr %3) #8
  br label %21

15:                                               ; preds = %8
  %16 = load i32, ptr %3, align 4, !tbaa !7
  call void (ptr, ...) @println(ptr noundef @.str.220, i32 noundef %16)
  %17 = load i32, ptr %3, align 4, !tbaa !7
  call void (ptr, ...) @println(ptr noundef @.str.221, i32 noundef %17)
  br label %18

18:                                               ; preds = %15
  %19 = load i32, ptr %3, align 4, !tbaa !7
  %20 = add nsw i32 %19, 1
  store i32 %20, ptr %3, align 4, !tbaa !7
  br label %8, !llvm.loop !137

21:                                               ; preds = %14
  br label %46

22:                                               ; preds = %1
  call void (ptr, ...) @println(ptr noundef @.str.222)
  br label %46

23:                                               ; preds = %1
  call void (ptr, ...) @println(ptr noundef @.str.223)
  br label %46

24:                                               ; preds = %1
  call void (ptr, ...) @println(ptr noundef @.str.224)
  br label %46

25:                                               ; preds = %1
  %26 = load ptr, ptr %2, align 8, !tbaa !37
  %27 = getelementptr inbounds nuw %struct.Type, ptr %26, i32 0, i32 1
  %28 = load i32, ptr %27, align 4, !tbaa !41
  %29 = icmp eq i32 %28, 1
  br i1 %29, label %30, label %31

30:                                               ; preds = %25
  call void (ptr, ...) @println(ptr noundef @.str.225)
  br label %46

31:                                               ; preds = %25
  %32 = load ptr, ptr %2, align 8, !tbaa !37
  %33 = getelementptr inbounds nuw %struct.Type, ptr %32, i32 0, i32 1
  %34 = load i32, ptr %33, align 4, !tbaa !41
  %35 = icmp eq i32 %34, 2
  br i1 %35, label %36, label %37

36:                                               ; preds = %31
  call void (ptr, ...) @println(ptr noundef @.str.226)
  br label %45

37:                                               ; preds = %31
  %38 = load ptr, ptr %2, align 8, !tbaa !37
  %39 = getelementptr inbounds nuw %struct.Type, ptr %38, i32 0, i32 1
  %40 = load i32, ptr %39, align 4, !tbaa !41
  %41 = icmp eq i32 %40, 4
  br i1 %41, label %42, label %43

42:                                               ; preds = %37
  call void (ptr, ...) @println(ptr noundef @.str.227)
  br label %44

43:                                               ; preds = %37
  call void (ptr, ...) @println(ptr noundef @.str.228)
  br label %44

44:                                               ; preds = %43, %42
  br label %45

45:                                               ; preds = %44, %36
  br label %46

46:                                               ; preds = %21, %22, %23, %24, %45, %30
  ret void
}