; Function Attrs: nofree nounwind uwtable
define internal fastcc void @store(ptr noundef readonly captures(none) %0) unnamed_addr #4 {
  tail call void (ptr, ...) @println(ptr noundef nonnull @.str.252, ptr noundef nonnull @.str.70)
  %2 = load i32, ptr @depth, align 4, !tbaa !87
  %3 = add nsw i32 %2, -1
  store i32 %3, ptr @depth, align 4, !tbaa !87
  %4 = load i32, ptr %0, align 8, !tbaa !29
  switch i32 %4, label %14 [
    i32 14, label %5
    i32 15, label %5
    i32 6, label %.loopexit.sink.split
    i32 7, label %12
    i32 8, label %13
  ]

5:                                                ; preds = %1, %1
  %6 = getelementptr inbounds nuw i8, ptr %0, i64 4
  %7 = load i32, ptr %6, align 4, !tbaa !32
  %8 = icmp sgt i32 %7, 0
  br i1 %8, label %.lr.ph, label %.loopexit

.lr.ph:                                           ; preds = %5, %.lr.ph
  %.09 = phi i32 [ %9, %.lr.ph ], [ 0, %5 ]
  tail call void (ptr, ...) @println(ptr noundef nonnull @.str.220, i32 noundef %.09)
  tail call void (ptr, ...) @println(ptr noundef nonnull @.str.221, i32 noundef %.09)
  %9 = add nuw nsw i32 %.09, 1
  %10 = load i32, ptr %6, align 4, !tbaa !32
  %11 = icmp slt i32 %9, %10
  br i1 %11, label %.lr.ph, label %.loopexit, !llvm.loop !131

12:                                               ; preds = %1
  br label %.loopexit.sink.split

13:                                               ; preds = %1
  br label %.loopexit.sink.split

14:                                               ; preds = %1
  %15 = getelementptr inbounds nuw i8, ptr %0, i64 4
  %16 = load i32, ptr %15, align 4, !tbaa !32
  %switch.tableidx = add i32 %16, -1
  %17 = icmp ult i32 %switch.tableidx, 4
  br i1 %17, label %switch.lookup, label %.loopexit.sink.split

switch.lookup:                                    ; preds = %14
  %18 = zext nneg i32 %switch.tableidx to i64
  %switch.gep = getelementptr inbounds nuw [4 x ptr], ptr @switch.table.store, i64 0, i64 %18
  %switch.load = load ptr, ptr %switch.gep, align 8
  br label %.loopexit.sink.split

.loopexit.sink.split:                             ; preds = %14, %switch.lookup, %1, %12, %13
  %.str.226.sink = phi ptr [ @.str.224, %13 ], [ @.str.223, %12 ], [ @.str.222, %1 ], [ %switch.load, %switch.lookup ], [ @.str.228, %14 ]
  tail call void (ptr, ...) @println(ptr noundef nonnull %.str.226.sink)
  br label %.loopexit

.loopexit:                                        ; preds = %.lr.ph, %.loopexit.sink.split, %5
  ret void
}